; Function Attrs: mustprogress nounwind uwtable
define internal fastcc void @_ZN9__gnu_cxx5__ops15_Iter_comp_iterIN12_GLOBAL__N_112StringSorterEED2Ev(ptr noundef nonnull align 8 dereferenceable(104) %0) unnamed_addr #6 align 2 personality ptr @__gxx_personality_v0 {
  %2 = getelementptr inbounds i8, ptr %0, i64 64
  %3 = getelementptr inbounds i8, ptr %0, i64 80
  %4 = load ptr, ptr %3, align 8
  %.not.i.i.i = icmp eq ptr %4, null
  br i1 %.not.i.i.i, label %_ZNSt8functionIFbRKNSt7__cxx1112basic_stringIcSt11char_traitsIcESaIcEEES7_EED2Ev.exit.i.preheader, label %5

_ZNSt8functionIFbRKNSt7__cxx1112basic_stringIcSt11char_traitsIcESaIcEEES7_EED2Ev.exit.i.preheader: ; preds = %5, %1
  br label %_ZNSt8functionIFbRKNSt7__cxx1112basic_stringIcSt11char_traitsIcESaIcEEES7_EED2Ev.exit.i

5:                                                ; preds = %1
  %6 = invoke noundef zeroext i1 %4(ptr noundef nonnull align 8 dereferenceable(16) %2, ptr noundef nonnull align 8 dereferenceable(16) %2, i32 noundef 3)
          to label %_ZNSt8functionIFbRKNSt7__cxx1112basic_stringIcSt11char_traitsIcESaIcEEES7_EED2Ev.exit.i.preheader unwind label %7

7:                                                ; preds = %5
  %8 = landingpad { ptr, i32 }
          catch ptr null
  %9 = extractvalue { ptr, i32 } %8, 0
  tail call void @__clang_call_terminate(ptr %9) #30
  unreachable

_ZNSt8functionIFbRKNSt7__cxx1112basic_stringIcSt11char_traitsIcESaIcEEES7_EED2Ev.exit.i: ; preds = %_ZNSt8functionIFbRKNSt7__cxx1112basic_stringIcSt11char_traitsIcESaIcEEES7_EED2Ev.exit.i.preheader, %_ZNSt8functionIFNSt7__cxx1112basic_stringIcSt11char_traitsIcESaIcEEERKS5_EED2Ev.exit.i
  %10 = phi ptr [ %11, %_ZNSt8functionIFNSt7__cxx1112basic_stringIcSt11char_traitsIcESaIcEEERKS5_EED2Ev.exit.i ], [ %2, %_ZNSt8functionIFbRKNSt7__cxx1112basic_stringIcSt11char_traitsIcESaIcEEES7_EED2Ev.exit.i.preheader ]
  %11 = getelementptr inbounds i8, ptr %10, i64 -32
  %12 = getelementptr inbounds i8, ptr %10, i64 -16
  %13 = load ptr, ptr %12, align 8
  %.not.i.i1.i = icmp eq ptr %13, null
  br i1 %.not.i.i1.i, label %_ZNSt8functionIFNSt7__cxx1112basic_stringIcSt11char_traitsIcESaIcEEERKS5_EED2Ev.exit.i, label %14

14:                                               ; preds = %_ZNSt8functionIFbRKNSt7__cxx1112basic_stringIcSt11char_traitsIcESaIcEEES7_EED2Ev.exit.i
  %15 = invoke noundef zeroext i1 %13(ptr noundef nonnull align 8 dereferenceable(16) %11, ptr noundef nonnull align 8 dereferenceable(16) %11, i32 noundef 3)
          to label %_ZNSt8functionIFNSt7__cxx1112basic_stringIcSt11char_traitsIcESaIcEEERKS5_EED2Ev.exit.i unwind label %16

16:                                               ; preds = %14
  %17 = landingpad { ptr, i32 }
          catch ptr null
  %18 = extractvalue { ptr, i32 } %17, 0
  tail call void @__clang_call_terminate(ptr %18) #30
  unreachable

_ZNSt8functionIFNSt7__cxx1112basic_stringIcSt11char_traitsIcESaIcEEERKS5_EED2Ev.exit.i: ; preds = %14, %_ZNSt8functionIFbRKNSt7__cxx1112basic_stringIcSt11char_traitsIcESaIcEEES7_EED2Ev.exit.i
  %19 = icmp eq ptr %11, %0
  br i1 %19, label %_ZN12_GLOBAL__N_112StringSorterD2Ev.exit, label %_ZNSt8functionIFbRKNSt7__cxx1112basic_stringIcSt11char_traitsIcESaIcEEES7_EED2Ev.exit.i

_ZN12_GLOBAL__N_112StringSorterD2Ev.exit:         ; preds = %_ZNSt8functionIFNSt7__cxx1112basic_stringIcSt11char_traitsIcESaIcEEERKS5_EED2Ev.exit.i
  ret void
}